source_filename = "test"
target datalayout = "e-p:32:32:32-f80:32:32"

@_ZTSSt13runtime_error = constant [18 x i8] c"St13runtime_error\00"
@_ZTISt9exception = global i32 390800
@0 = internal constant [2 x i8] c"\06\00"
@1 = internal constant [2 x i8] c"\06\00"
@2 = internal constant [2 x i8] c"\06\00"
@3 = internal constant [2 x i8] c"\06\00"
@4 = internal constant [2 x i8] c"\06\00"
@5 = internal constant [2 x i8] c"\06\00"
@6 = internal constant [2 x i8] c"\06\00"
@7 = internal constant [2 x i8] c"\06\00"
@8 = internal constant [2 x i8] c"\06\00"

define i8* @_Z7getNameiPc(i32 %serverTime, i8* %params) local_unnamed_addr {
dec_label_pc_11338:
  %v13_11338 = inttoptr i32 %serverTime to i8*
  ret i8* %v13_11338
}

declare i32 @_ZNSt9exceptionD2Ev(i32*)

declare i32 @_ZNSt13bad_exceptionD2Ev(i32*)

declare i32 @_ZN10__cxxabiv115__forced_unwindD2Ev(i32*)

declare i32 @_ZN10__cxxabiv119__foreign_exceptionD2Ev(i32*)

declare i32 @_ZNKSt9exception4whatEv(i32*)

declare i32 @_ZNKSt13bad_exception4whatEv(i32*)

declare i32 @_ZNSt9exceptionD0Ev(i32*)

declare i32 @_ZNSt13bad_exceptionD0Ev(i32*)

declare i32 @_ZN10__cxxabiv115__forced_unwindD0Ev(i32*)

declare i32 @_ZN10__cxxabiv119__foreign_exceptionD0Ev(i32*)

declare i32 @sub_172A8()

declare i32 @sub_172B4()

declare i32 @sub_172C0()

declare i32 @sub_172D8()

declare i32 @sub_172F0()

declare i32 @sub_17310()

declare void @__cxa_pure_virtual()

declare i32 @_ZNKSt9bad_alloc4whatEv(i32*)

declare i32 @_ZNSt9bad_allocD2Ev(i32*)

declare i32 @_ZNSt9bad_allocD0Ev(i32*)

declare i32 @sub_17614()

declare i32 @sub_1762C()

declare i32 @sub_17644()

declare i32 @sub_17664()

declare i32 @sub_1858C()

declare i32 @sub_185C8()

declare i32 @sub_185DC()

declare i32 @sub_185E4()

declare i32 @sub_185EC()

declare i32 @sub_185F4()

declare i32 @sub_18624()

declare i32 @sub_18654()

declare i32 @sub_1865C()

declare i32 @sub_18664()

declare i32 @sub_1866C()

declare i32 @sub_1869C()

declare i32 @sub_186CC()

declare i32 @sub_186D4()

declare i32 @sub_186DC()

declare i32 @sub_186E0()

declare i32 @nullsub_4()

declare i32 @sub_186E8()

declare i32 @sub_18700()

declare i32 @sub_18718()

declare i32 @sub_18730()

declare i32 @sub_18748()

declare i32 @sub_18760()

declare i32 @sub_18778()

declare i32 @sub_18790()

declare i32 @sub_187A8()

declare i32 @sub_187C0()

declare i32 @sub_18808()

declare i32 @sub_18820()

declare i32 @sub_18838()

declare i32 @sub_18850()

declare i32 @sub_18868()

declare i32 @sub_18880()

declare i32 @sub_18898()

declare i32 @sub_188B0()

declare i32 @sub_188C8()

declare i32 @sub_188E0()

declare i32 @sub_188F8()

declare i32 @sub_18910()

declare i32 @sub_18950()

declare i32 @sub_18990()

declare i32 @sub_189C8()

declare i32 @sub_189DC()

declare i32 @sub_189F0()

declare i32 @sub_18A10()

declare i32 @sub_18A30()

declare i32 @sub_18A44()

declare i32 @sub_18A64()

declare i32 @sub_18A84()

declare i32 @sub_18A98()

declare i32 @sub_18AB8()

declare i32 @sub_18AD8()

declare i32 @sub_18AF8()

declare i32 @sub_18B58()

declare i32 @sub_18B84()

declare i32 @sub_18B98()

declare i32 @sub_18BB0()

declare i32 @sub_18BD0()

declare i32 @sub_18BFC()

declare i32 @sub_18C14()

declare i32 @sub_18C34()

declare i32 @sub_18C4C()

declare i32 @sub_18C6C()

declare i32 @sub_18C84()

declare i32 @sub_18CA4()

declare i32 @sub_18CEC()

declare i32 @sub_18D00()

declare i32 @sub_18D18()

declare i32 @sub_18D38(i32)

declare i32 @sub_18E04()

declare i32 @sub_18E30()

declare i32 @sub_18E60()

declare i32 @sub_18E90()

declare i32 @sub_1A6BC(i32, i32, i32, i32, i32)

declare i32 @sub_1B580(i32, i32, i32, i8, i8)

declare i32 @sub_1C354(i8, i32, i8)

declare i32 @sub_1C4B4(i8, i32, i8, i32)

declare i32 @sub_1C8C0(i32, i8, i32)

declare i32 @sub_1CAD4(i32, i8, i32)

declare i32 @sub_1CAFC(i32, i8, i32)

declare i32 @sub_1CE04(i32, i8)

declare i32 @sub_1D030(i32, i8, i8)

declare i32 @sub_1D350(i32, i8)

declare i32 @sub_1D598(i32, i8)

declare i32 @sub_1D7E0(i32, i8)

declare i32 @sub_1DD28(i32, i32, i32, i32, i32)

declare i32 @sub_1DE6C(i32, i32, i32, i32, i32)

declare i32 @sub_1E8DC(i32, i32, i32, i32, i32)

declare i32 @sub_1E99C(i32, i32, i32, i32, i32)

declare i32 @sub_1F934(i8, i32, i8, i32, i32, i32)

declare i32 @sub_1F9FC(i8, i32, i8, i32, i32, i32)

declare i32 @sub_200F0(i32, i32, i32, i32, i32)

declare i32 @sub_20230(i32, i32, i32, i32, i32)

declare i32 @sub_20370(i32, i32, i32, i32, i32)

declare i32 @sub_20A18(i8, i32, i32, i32, i32)

declare i32 @sub_20A54(i32, i32, i32, i32, i32)

declare i32 @sub_21258(i8, i32, i32, i32, i32)

declare i32 @sub_217C8(i8, i32, i32, i32, i32)

declare i32 @sub_21D38(i8, i32, i32, i32, i32)

declare i32 @sub_21D74(i8, i32, i32, i32, i32)

declare i32 @sub_223F0(i8, i32, i32, i32, i32)

declare i32 @sub_229D0(i8, i32, i32, i32, i32)

declare i32 @sub_22A0C(i32, i32, i32, i32)

declare i32 @sub_22A20(i32)

declare i32 @sub_22A28(i32, i32, i32, i32)

declare i32 @sub_22A3C()

declare i32 @sub_22A40()

declare i32 @sub_22A44(i32)

declare i32 @sub_22A50()

declare i32 @sub_22A54(i32)

declare i32 @sub_22A5C()

declare i32 @sub_22A60()

declare i32 @sub_22AA8()

declare i32 @sub_22ABC()

declare i32 @sub_22B04()

declare i32 @sub_22BE8()

declare i32 @sub_22C14()

declare i32 @sub_22C3C()

declare i32 @sub_22C8C()

declare i32 @sub_22CBC()

declare i32 @sub_22D08()

declare i32 @sub_22D30()

declare i32 @sub_22D98()

declare i32 @sub_22E00()

declare i32 @sub_22E70()

declare i32 @sub_22EE0()

declare i32 @sub_22F8C()

declare i32 @sub_23038()

declare i32 @sub_230E8()

declare i32 @sub_23198()

declare i32 @sub_23248()

declare i32 @sub_232F8()

declare i32 @sub_233AC()

declare i32 @sub_23460()

declare i32 @sub_23528()

declare i32 @sub_235F0()

declare i32 @sub_236C0()

declare i32 @sub_23978()

declare i32 @sub_239B0()

declare i32 @sub_23BA8(i32, i32)

declare i32 @sub_23D08(i32, i32, i32)

declare i32 @sub_2506C()

declare i32 @sub_250A4()

declare i32 @sub_2529C(i32, i32)

declare i32 @sub_25408(i32, i32, i32)

declare i32 @sub_26578(i32, i8*, i32, i32)

declare i32 @sub_2664C(i32, i32, i8*, i32, i32, i16*, i32, i32)

declare i32 @sub_266C4()

declare i32 @sub_266C8()

declare i32 @sub_266CC(i32, i32, i8*, i32, i32)

declare i32 @sub_28DA0()

declare i32 @sub_28DA4()

declare i32 @sub_28DA8()

declare i32 @sub_28DB8(i8*)

declare i32 @sub_28DC8()

declare i32 @sub_28E10()

declare i32 @sub_28E28()

declare i32 @sub_28E60()

declare i32 @sub_28E74()

declare i32 @sub_28E94()

declare i32 @sub_29084()

declare i32 @sub_29094()

declare i32 @sub_299F0()

declare i32 @sub_29A3C()

declare i32 @sub_29A90()

declare i32 @sub_29ADC()

declare i32 @sub_29FD0()

declare i32 @sub_29FE0()

declare i32 @sub_2A004()

declare i32 @sub_2A014()

declare i32 @sub_2A120()

declare i32 @sub_2A128()

declare i32 @sub_2A130()

declare i32 @sub_2A138()

declare i32 @sub_2A168()

declare i32 @sub_2A198()

declare i32 @sub_2A1A0()

declare i32 @sub_2A1A8()

declare i32 @sub_2A1B0()

declare i32 @sub_2A1E0()

declare i32 @sub_2A210()

declare i32 @sub_2A218()

declare i32 @sub_2A220()

declare i32 @sub_2A224()

declare i32 @nullsub_6()

declare i32 @sub_2A22C()

declare i32 @sub_2A244()

declare i32 @sub_2A25C()

declare i32 @sub_2A274()

declare i32 @sub_2A28C()

declare i32 @sub_2A2A4()

declare i32 @sub_2A2BC()

declare i32 @sub_2A2D4()

declare i32 @sub_2A2EC()

declare i32 @sub_2A304()

declare i32 @sub_2A34C()

declare i32 @sub_2A364()

declare i32 @sub_2A37C()

declare i32 @sub_2A394()

declare i32 @sub_2A3AC()

declare i32 @sub_2A3C4()

declare i32 @sub_2A3DC()

declare i32 @sub_2A3F4()

declare i32 @sub_2A40C()

declare i32 @sub_2A424()

declare i32 @sub_2A43C()

declare i32 @sub_2A454()

declare i32 @sub_2A494()

declare i32 @sub_2A4D4()

declare i32 @sub_2A50C()

declare i32 @sub_2A520()

declare i32 @sub_2A534()

declare i32 @sub_2A554()

declare i32 @sub_2A574()

declare i32 @sub_2A588()

declare i32 @sub_2A5A8()

declare i32 @sub_2A5C8()

declare i32 @sub_2A5DC()

declare i32 @sub_2A5FC()

declare i32 @sub_2A61C()

declare i32 @sub_2A63C()

declare i32 @sub_2A69C()

declare i32 @sub_2A6C8()

declare i32 @sub_2A6DC()

declare i32 @sub_2A6F4()

declare i32 @sub_2A714()

declare i32 @sub_2A740()

declare i32 @sub_2A758()

declare i32 @sub_2A778()

declare i32 @sub_2A790()

declare i32 @sub_2A7B0()

declare i32 @sub_2A7C8()

declare i32 @sub_2A7E8()

declare i32 @sub_2A830()

declare i32 @sub_2A844()

declare i32 @sub_2A85C()

declare i32 @sub_2A87C()

declare i32 @sub_2A8A8()

declare i32 @sub_2A8D8()

declare i32 @sub_2A908(i32)

declare i32 @sub_2AA14()

declare i32 @sub_2C0F8(i32, i32, i32, i32, i32)

declare i32 @sub_2CFB0(i32, i32, i32, i8, i8)

declare i32 @sub_2DF24(i8, i32, i32, i32, double)

declare i32 @sub_2E058(i8, i32, i32, i32)

declare i32 @sub_2E3F4(i32, i32, i32)

declare i32 @sub_2E420(i32, i32, i32)

declare i32 @sub_2E714(i32, i32)

declare i32 @sub_2EACC(i32, i32, i32)

declare i32 @sub_2EAF8(i32, i16, i8)

declare i32 @sub_2EDF4(i32, i32)

declare i32 @sub_2EFE0(double)

declare i32 @sub_2F1D0(double)

declare i32 @sub_2F700(i32, i32, i32, i32, i32)

declare i32 @sub_2F850(i32, i32, i32, i32, i32)

declare i32 @sub_30244(i32, i32, i32, i32, i32)

declare i32 @sub_30314(i32, i32, i32, i32, i32)

declare i32 @sub_31308(i8, i32, i8, i32, i32, i32)

declare i32 @sub_313D0(i8, i32, i8, i32, i32, i32)

declare i32 @sub_31B08(i32, i32, i32, i32, i32)

declare i32 @sub_31C5C(i32, i32, i32, i32, i32)

declare i32 @sub_31DB0(i32, i32, i32, i32, i32)

declare i32 @sub_3245C(i8, i32, i32, i32, i32)

declare i32 @sub_32498(i32, i32, i32, i32, i32)

declare i32 @sub_32C80(i8, i32, i32, i32, i32)

declare i32 @sub_331E4(i8, i32, i32, i32, i32)

declare i32 @sub_33774(i8, i32, i32, i32, i32)

declare i32 @sub_337B0(i8, i32, i32, i32, i32)

declare i32 @sub_33E2C(i8, i32, i32, i32, i32)

declare i32 @sub_343FC(i8, i32, i32, i32, i32)

declare i32 @sub_34438()

declare i32 @sub_3446C()

declare i32 @sub_344A0()

declare i32 @sub_344DC()

declare i32 @sub_390F8()

declare i32 @sub_39128()

declare i32 @sub_39158()

declare i32 @sub_391AC()

declare i32 @sub_39204()

declare i32 @sub_3922C()

declare i32 @sub_39254()

declare i32 @sub_39328()

declare i32 @sub_393FC()

declare i32 @sub_394B0()

declare i32 @sub_3956C()

declare i32 @sub_39860()

declare i32 @sub_399DC()

declare i32 @sub_39CE4()

declare i32 @sub_3A284()

declare i32 @sub_3A35C()

declare i32 @sub_3A39C()

declare i32 @sub_3A414()

declare i32 @sub_3A490()

declare i32 @sub_3A514()

declare i32 @sub_3A594()

declare i32 @sub_3A62C()

declare i32 @sub_3A750()

declare i32 @sub_3A894(i32)

declare i32 @sub_3A9F4(i32)

declare i32 @sub_3AA74()

declare i32 @sub_3C054()

declare i32 @sub_3C12C()

declare i32 @sub_3C16C()

declare i32 @sub_3C1E4()

declare i32 @sub_3C260()

declare i32 @sub_3C2E0()

declare i32 @sub_3C364()

declare i32 @sub_3C3FC()

declare i32 @sub_3C520()

declare i32 @sub_3C660(i32)

declare i32 @sub_3C7C4(i32)

declare i32 @sub_3C848()

declare i32 @sub_3DF90()

declare i32 @sub_3DF9C()

declare i32 @sub_3DFB4()

declare i32 @nullsub_10()

declare i32 @sub_3DFD8()

declare i32 @sub_3DFE4()

declare i32 @sub_3DFFC()

declare i32 @sub_3E01C()

declare i32 @sub_3E034()

declare i32 @sub_3E054()

declare i32 @sub_3E070()

declare i32 @sub_3E090()

declare i32 @sub_3E0B8()

declare i32 @sub_3E0CC()

declare i32 @sub_3E11C()

declare i32 @_ZN10__cxxabiv121__vmi_class_type_infoD2Ev(i32*)

declare i32 @_ZN10__cxxabiv121__vmi_class_type_infoD0Ev(i32*)

declare i32 @_ZNK10__cxxabiv121__vmi_class_type_info20__do_find_public_srcEiPKvPKNS_17__class_type_infoES2_(i32*, i32, i8*, i32*, i8*)

declare i32 @_ZNK10__cxxabiv121__vmi_class_type_info12__do_dyncastEiNS_17__class_type_info10__sub_kindEPKS1_PKvS4_S6_RNS1_16__dyncast_resultE(i32, i32, i32, i32)

declare i32 @_ZNK10__cxxabiv121__vmi_class_type_info11__do_upcastEPKNS_17__class_type_infoEPKvRNS1_15__upcast_resultE()

declare i32 @_ZNKSt10bad_typeid4whatEv(i32*)

declare i32 @_ZNSt10bad_typeidD2Ev(i32*)

declare i32 @_ZNSt10bad_typeidD0Ev(i32*)

declare i32 @_ZN10__cxxabiv120__si_class_type_infoD2Ev(i32*)

declare i32 @_ZN10__cxxabiv120__si_class_type_infoD0Ev(i32*)

declare i32 @_ZNK10__cxxabiv120__si_class_type_info20__do_find_public_srcEiPKvPKNS_17__class_type_infoES2_(i32*, i32, i8*, i32*, i8*)

declare i32 @_ZNK10__cxxabiv120__si_class_type_info12__do_dyncastEiNS_17__class_type_info10__sub_kindEPKS1_PKvS4_S6_RNS1_16__dyncast_resultE(i32, i32, i32, i32)

declare i32 @_ZNK10__cxxabiv120__si_class_type_info11__do_upcastEPKNS_17__class_type_infoEPKvRNS1_15__upcast_resultE()

declare i32 @_ZNK10__cxxabiv117__class_type_info11__do_upcastEPKS0_PPv(i32*, i32*, i8**)

declare i32 @_ZNK10__cxxabiv117__class_type_info20__do_find_public_srcEiPKvPKS0_S2_(i32*, i32, i8*, i32*, i8*)

declare i32 @_ZN10__cxxabiv117__class_type_infoD2Ev(i32*)

declare i32 @_ZN10__cxxabiv117__class_type_infoD0Ev(i32*)

declare i32 @_ZNK10__cxxabiv117__class_type_info11__do_upcastEPKS0_PKvRNS0_15__upcast_resultE()

declare i32 @_ZNK10__cxxabiv117__class_type_info10__do_catchEPKSt9type_infoPPvj()

declare i32 @_ZNK10__cxxabiv117__class_type_info12__do_dyncastEiNS0_10__sub_kindEPKS0_PKvS3_S5_RNS0_16__dyncast_resultE(i32, i32, i32, i32)

declare i32 @_ZNKSt8bad_cast4whatEv(i32*)

declare i32 @_ZNSt8bad_castD2Ev(i32*)

declare i32 @_ZNSt8bad_castD0Ev(i32*)

declare i32 @sub_40CAC()

declare i32 @sub_40CB0()

declare i32 @sub_40CB4(i32*)

declare i32 @sub_40D0C()

declare i32 @sub_40D20()

declare i32 @sub_40D38()

declare i32 @sub_40D58()

declare i32 @sub_40D70()

declare i32 @sub_40D90()

declare i32 @sub_40DA8()

declare i32 @sub_40DC8()

declare i32 @sub_40DE0()

declare i32 @sub_40E00(i32*)

declare i32 @sub_40E58()

declare i32 @sub_40E6C()

declare i32 @sub_40E84()

declare i32 @sub_40EA4()

declare i32 @sub_40EBC()

declare i32 @sub_40EDC()

declare i32 @sub_40EF4()

declare i32 @nullsub_5()

declare i32 @nullsub_7()

declare i32 @sub_4100C()

declare i32 @sub_41024()

declare i32 @sub_41048()

declare i32 @sub_4104C()

declare i32 @sub_41050()

declare i32 @sub_41058()

declare i32 @sub_41070()

declare i32 @sub_41078()

declare i32 @nullsub_8()

declare i32 @nullsub_9()

declare i32 @sub_41088()

declare i32 @sub_410A0()

declare i32 @sub_410C4()

declare i32 @sub_410C8()

declare i32 @sub_410CC()

declare i32 @sub_410D4()

declare i32 @sub_410DC()

declare i32 @sub_410E4()

declare i32 @sub_41148()

declare i32 @sub_411A8()

declare i32 @sub_411C4()

declare i32 @sub_411E0()

declare i32 @sub_41200()

declare i32 @sub_41220()

declare i32 @sub_41288()

declare i32 @sub_412EC()

declare i32 @sub_41840()

declare i32 @sub_41870()

declare i32 @sub_41884()

declare i32 @sub_418B4()

declare i32 @sub_41A34(i32, i32)

declare i32 @sub_41A44(i32, i32)

declare i32 @sub_41A54()

declare i32 @sub_41A84()

declare i32 @sub_41A98()

declare i32 @sub_41AC8()

declare i32 @sub_41ADC()

declare i32 @sub_41B0C()

declare i32 @sub_41B20()

declare i32 @sub_41B50()

declare i32 @sub_41FA0()

declare i32 @sub_41FB8()

declare i32 @sub_420F8()

declare i32 @sub_42100()

declare i32 @sub_42128()

declare i32 @sub_42130()

declare i32 @sub_42158()

declare i32 @sub_42198()

declare i32 @sub_421F0()

declare i32 @sub_42228()

declare i32 @sub_42260()

declare i32 @sub_42268()

declare i32 @sub_4228C()

declare i32 @sub_422B0(i32)

declare i32 @sub_4239C()

declare i32 @sub_423D4()

declare i32 @sub_4240C()

declare i32 @sub_4244C()

declare i32 @sub_460B4()

declare i32 @sub_460B8(i32*)

declare i32 @sub_46110()

declare i32 @sub_46668()

declare i32 @sub_46680()

declare i32 @sub_4671C()

declare i32 @sub_46728()

declare i32 @sub_46744()

declare i32 @sub_4674C()

declare i32 @sub_46780()

declare i32 @sub_46794()

declare i32 @sub_467A4()

declare i32 @sub_467CC()

declare i32 @sub_467E4()

declare i32 @sub_467FC()

declare i32 @sub_46814()

declare i32 @sub_46834()

declare i32 @sub_46850()

declare i32 @sub_468A8()

declare i32 @sub_468B8()

declare i32 @sub_468BC()

declare i32 @sub_468C0()

declare i32 @sub_468C4()

declare i32 @sub_4690C()

declare i32 @__aeabi_unwind_cpp_pr0()

declare i32 @__aeabi_unwind_cpp_pr1()

declare i32 @__aeabi_unwind_cpp_pr2()
